target datalayout = "e-m:e-p270:32:32-p271:32:32-p272:64:64-i64:64-i128:128-f80:128-n8:16:32:64-S128"
target triple = "x86_64-pc-linux-gnu"

; Function Attrs: inlinehint nounwind uwtable
define internal i32 @git_is_dir_sep(i32 noundef %0) #4 {
  %2 = alloca i32, align 4
  store i32 %0, ptr %2, align 4, !tbaa !4
  %3 = load i32, ptr %2, align 4, !tbaa !4
  %4 = icmp eq i32 %3, 47
  %5 = zext i1 %4 to i32
  ret i32 %5
}

; Function Attrs: nounwind uwtable
define internal void @internal_prefix_pathspec(ptr noundef %0, ptr noundef %1, ptr noundef %2, i32 noundef %3, i32 noundef %4) #0 {
  %6 = alloca ptr, align 8
  %7 = alloca ptr, align 8
  %8 = alloca ptr, align 8
  %9 = alloca i32, align 4
  %10 = alloca i32, align 4
  %11 = alloca i32, align 4
  %12 = alloca i32, align 4
  %13 = alloca i64, align 8
  %14 = alloca i64, align 8
  %15 = alloca ptr, align 8
  %16 = alloca ptr, align 8
  %17 = alloca ptr, align 8
  store ptr %0, ptr %6, align 8, !tbaa !81
  store ptr %1, ptr %7, align 8, !tbaa !11
  store ptr %2, ptr %8, align 8, !tbaa !8
  store i32 %3, ptr %9, align 4, !tbaa !4
  store i32 %4, ptr %10, align 4, !tbaa !4
  call void @llvm.lifetime.start.p0(i64 4, ptr %11) #9
  %18 = load ptr, ptr %7, align 8, !tbaa !11
  %19 = icmp ne ptr %18, null
  br i1 %19, label %20, label %23

20:                                               ; preds = %5
  %21 = load ptr, ptr %7, align 8, !tbaa !11
  %22 = call i64 @strlen(ptr noundef %21) #11
  br label %24

23:                                               ; preds = %5
  br label %24

24:                                               ; preds = %23, %20
  %25 = phi i64 [ %22, %20 ], [ 0, %23 ]
  %26 = trunc i64 %25 to i32
  store i32 %26, ptr %11, align 4, !tbaa !4
  call void @llvm.lifetime.start.p0(i64 4, ptr %12) #9
  store i32 0, ptr %12, align 4, !tbaa !4
  br label %27

27:                                               ; preds = %92, %24
  %28 = load i32, ptr %12, align 4, !tbaa !4
  %29 = load i32, ptr %9, align 4, !tbaa !4
  %30 = icmp slt i32 %28, %29
  br i1 %30, label %32, label %31

31:                                               ; preds = %27
  call void @llvm.lifetime.end.p0(i64 4, ptr %12) #9
  br label %95

32:                                               ; preds = %27
  call void @llvm.lifetime.start.p0(i64 8, ptr %13) #9
  %33 = load ptr, ptr %8, align 8, !tbaa !8
  %34 = load i32, ptr %12, align 4, !tbaa !4
  %35 = sext i32 %34 to i64
  %36 = getelementptr inbounds ptr, ptr %33, i64 %35
  %37 = load ptr, ptr %36, align 8, !tbaa !11
  %38 = call i64 @strlen(ptr noundef %37) #11
  store i64 %38, ptr %13, align 8, !tbaa !68
  call void @llvm.lifetime.start.p0(i64 8, ptr %14) #9
  %39 = load i64, ptr %13, align 8, !tbaa !68
  store i64 %39, ptr %14, align 8, !tbaa !68
  call void @llvm.lifetime.start.p0(i64 8, ptr %15) #9
  call void @llvm.lifetime.start.p0(i64 8, ptr %16) #9
  call void @llvm.lifetime.start.p0(i64 8, ptr %17) #9
  br label %40

40:                                               ; preds = %62, %32
  %41 = load i32, ptr %10, align 4, !tbaa !4
  %42 = and i32 %41, 2
  %43 = icmp ne i32 %42, 0
  br i1 %43, label %60, label %44

44:                                               ; preds = %40
  %45 = load i64, ptr %14, align 8, !tbaa !68
  %46 = icmp ugt i64 %45, 0
  br i1 %46, label %47, label %60

47:                                               ; preds = %44
  %48 = load ptr, ptr %8, align 8, !tbaa !8
  %49 = load i32, ptr %12, align 4, !tbaa !4
  %50 = sext i32 %49 to i64
  %51 = getelementptr inbounds ptr, ptr %48, i64 %50
  %52 = load ptr, ptr %51, align 8, !tbaa !11
  %53 = load i64, ptr %14, align 8, !tbaa !68
  %54 = sub i64 %53, 1
  %55 = getelementptr inbounds nuw i8, ptr %52, i64 %54
  %56 = load i8, ptr %55, align 1, !tbaa !32
  %57 = sext i8 %56 to i32
  %58 = call i32 @git_is_dir_sep(i32 noundef %57)
  %59 = icmp ne i32 %58, 0
  br label %60

60:                                               ; preds = %47, %44, %40
  %61 = phi i1 [ false, %44 ], [ false, %40 ], [ %59, %47 ]
  br i1 %61, label %62, label %65

62:                                               ; preds = %60
  %63 = load i64, ptr %14, align 8, !tbaa !68
  %64 = add i64 %63, -1
  store i64 %64, ptr %14, align 8, !tbaa !68
  br label %40, !llvm.loop !83

65:                                               ; preds = %60
  %66 = load ptr, ptr %8, align 8, !tbaa !8
  %67 = load i32, ptr %12, align 4, !tbaa !4
  %68 = sext i32 %67 to i64
  %69 = getelementptr inbounds ptr, ptr %66, i64 %68
  %70 = load ptr, ptr %69, align 8, !tbaa !11
  %71 = load i64, ptr %14, align 8, !tbaa !68
  %72 = call ptr @xmemdupz(ptr noundef %70, i64 noundef %71)
  store ptr %72, ptr %16, align 8, !tbaa !11
  %73 = load i32, ptr %10, align 4, !tbaa !4
  %74 = and i32 %73, 1
  %75 = icmp ne i32 %74, 0
  br i1 %75, label %76, label %79

76:                                               ; preds = %65
  %77 = load ptr, ptr %16, align 8, !tbaa !11
  %78 = call ptr @__xpg_basename(ptr noundef %77) #9
  br label %81

79:                                               ; preds = %65
  %80 = load ptr, ptr %16, align 8, !tbaa !11
  br label %81

81:                                               ; preds = %79, %76
  %82 = phi ptr [ %78, %76 ], [ %80, %79 ]
  store ptr %82, ptr %15, align 8, !tbaa !11
  %83 = load ptr, ptr %7, align 8, !tbaa !11
  %84 = load i32, ptr %11, align 4, !tbaa !4
  %85 = load ptr, ptr %15, align 8, !tbaa !11
  %86 = call ptr @prefix_path(ptr noundef %83, i32 noundef %84, ptr noundef %85)
  store ptr %86, ptr %17, align 8, !tbaa !11
  %87 = load ptr, ptr %6, align 8, !tbaa !81
  %88 = load ptr, ptr %17, align 8, !tbaa !11
  %89 = call ptr @strvec_push(ptr noundef %87, ptr noundef %88)
  %90 = load ptr, ptr %17, align 8, !tbaa !11
  call void @free(ptr noundef %90) #9
  %91 = load ptr, ptr %16, align 8, !tbaa !11
  call void @free(ptr noundef %91) #9
  call void @llvm.lifetime.end.p0(i64 8, ptr %17) #9
  call void @llvm.lifetime.end.p0(i64 8, ptr %16) #9
  call void @llvm.lifetime.end.p0(i64 8, ptr %15) #9
  call void @llvm.lifetime.end.p0(i64 8, ptr %14) #9
  call void @llvm.lifetime.end.p0(i64 8, ptr %13) #9
  br label %92

92:                                               ; preds = %81
  %93 = load i32, ptr %12, align 4, !tbaa !4
  %94 = add nsw i32 %93, 1
  store i32 %94, ptr %12, align 4, !tbaa !4
  br label %27, !llvm.loop !84

95:                                               ; preds = %31
  call void @llvm.lifetime.end.p0(i64 4, ptr %11) #9
  ret void
}