; Function Attrs: nounwind uwtable
define internal fastcc void @internal_prefix_pathspec(ptr noundef nonnull %0, ptr noundef %1, ptr noundef readonly captures(none) %2, i32 noundef range(i32 1, 2147483647) %3, i32 noundef range(i32 0, 3) %4) unnamed_addr #0 {
  %.not = icmp eq ptr %1, null
  br i1 %.not, label %9, label %6

6:                                                ; preds = %5
  %7 = tail call i64 @strlen(ptr noundef nonnull dereferenceable(1) %1) #14
  %8 = trunc i64 %7 to i32
  br label %9

9:                                                ; preds = %5, %6
  %10 = phi i32 [ %8, %6 ], [ 0, %5 ]
  %11 = icmp samesign ult i32 %4, 2
  %12 = and i32 %4, 1
  %.not30 = icmp eq i32 %12, 0
  %wide.trip.count71 = zext nneg i32 %3 to i64
  br i1 %11, label %.split.split.us, label %.split.us

.split.us:                                        ; preds = %9
  br i1 %.not30, label %.critedge.us.us, label %.critedge.us

.critedge.us.us:                                  ; preds = %.split.us, %.critedge.us.us
  %indvars.iv63 = phi i64 [ %indvars.iv.next64, %.critedge.us.us ], [ 0, %.split.us ]
  %13 = getelementptr inbounds nuw ptr, ptr %2, i64 %indvars.iv63
  %14 = load ptr, ptr %13, align 8, !tbaa !23
  %15 = tail call i64 @strlen(ptr noundef nonnull dereferenceable(1) %14) #14
  %16 = tail call ptr @xmemdupz(ptr noundef nonnull %14, i64 noundef %15) #12
  %17 = tail call ptr @prefix_path(ptr noundef %1, i32 noundef %10, ptr noundef %16) #12
  %18 = tail call ptr @strvec_push(ptr noundef nonnull %0, ptr noundef %17) #12
  tail call void @free(ptr noundef %17) #12
  tail call void @free(ptr noundef %16) #12
  %indvars.iv.next64 = add nuw nsw i64 %indvars.iv63, 1
  %exitcond67.not = icmp eq i64 %indvars.iv.next64, %wide.trip.count71
  br i1 %exitcond67.not, label %.split39.us, label %.critedge.us.us, !llvm.loop !79

.critedge.us:                                     ; preds = %.split.us, %.critedge.us
  %indvars.iv = phi i64 [ %indvars.iv.next, %.critedge.us ], [ 0, %.split.us ]
  %19 = getelementptr inbounds nuw ptr, ptr %2, i64 %indvars.iv
  %20 = load ptr, ptr %19, align 8, !tbaa !23
  %21 = tail call i64 @strlen(ptr noundef nonnull dereferenceable(1) %20) #14
  %22 = tail call ptr @xmemdupz(ptr noundef nonnull %20, i64 noundef %21) #12
  %23 = tail call ptr @__xpg_basename(ptr noundef %22) #12
  %24 = tail call ptr @prefix_path(ptr noundef %1, i32 noundef %10, ptr noundef %23) #12
  %25 = tail call ptr @strvec_push(ptr noundef nonnull %0, ptr noundef %24) #12
  tail call void @free(ptr noundef %24) #12
  tail call void @free(ptr noundef %22) #12
  %indvars.iv.next = add nuw nsw i64 %indvars.iv, 1
  %exitcond.not = icmp eq i64 %indvars.iv.next, %wide.trip.count71
  br i1 %exitcond.not, label %.split39.us, label %.critedge.us, !llvm.loop !79

.split.split.us:                                  ; preds = %9, %33
  %indvars.iv68 = phi i64 [ %indvars.iv.next69, %33 ], [ 0, %9 ]
  %26 = getelementptr inbounds nuw ptr, ptr %2, i64 %indvars.iv68
  %27 = load ptr, ptr %26, align 8, !tbaa !23
  %28 = tail call i64 @strlen(ptr noundef nonnull dereferenceable(1) %27) #14
  %invariant.gep.us42 = getelementptr i8, ptr %27, i64 -1
  %.not56 = icmp eq i64 %28, 0
  br i1 %.not56, label %.critedge.us45, label %.lr.ph.us

.lr.ph.us:                                        ; preds = %.split.split.us, %37
  %.02733.us = phi i64 [ %38, %37 ], [ %28, %.split.split.us ]
  %gep.us43 = getelementptr i8, ptr %invariant.gep.us42, i64 %.02733.us
  %29 = load i8, ptr %gep.us43, align 1, !tbaa !27
  %.not31.us44 = icmp eq i8 %29, 47
  br i1 %.not31.us44, label %37, label %.critedge.us45

.critedge.us45:                                   ; preds = %.lr.ph.us, %37, %.split.split.us
  %.027.lcssa.us46 = phi i64 [ 0, %.split.split.us ], [ 0, %37 ], [ %.02733.us, %.lr.ph.us ]
  %30 = tail call ptr @xmemdupz(ptr noundef nonnull %27, i64 noundef %.027.lcssa.us46) #12
  br i1 %.not30, label %33, label %31

31:                                               ; preds = %.critedge.us45
  %32 = tail call ptr @__xpg_basename(ptr noundef %30) #12
  br label %33

33:                                               ; preds = %31, %.critedge.us45
  %34 = phi ptr [ %32, %31 ], [ %30, %.critedge.us45 ]
  %35 = tail call ptr @prefix_path(ptr noundef %1, i32 noundef %10, ptr noundef %34) #12
  %36 = tail call ptr @strvec_push(ptr noundef nonnull %0, ptr noundef %35) #12
  tail call void @free(ptr noundef %35) #12
  tail call void @free(ptr noundef %30) #12
  %indvars.iv.next69 = add nuw nsw i64 %indvars.iv68, 1
  %exitcond72.not = icmp eq i64 %indvars.iv.next69, %wide.trip.count71
  br i1 %exitcond72.not, label %.split39.us, label %.split.split.us, !llvm.loop !79

37:                                               ; preds = %.lr.ph.us
  %38 = add i64 %.02733.us, -1
  %.not57 = icmp eq i64 %38, 0
  br i1 %.not57, label %.critedge.us45, label %.lr.ph.us, !llvm.loop !80

.split39.us:                                      ; preds = %.critedge.us, %.critedge.us.us, %33
  ret void
}